; ModuleID = '37/1902.c'
source_filename = "37/1902.c"
target datalayout = "e-m:e-p270:32:32-p271:32:32-p272:64:64-i64:64-f80:128-n8:16:32:64-S128"
target triple = "x86_64-pc-linux-gnu"

@.str = private unnamed_addr constant [3 x i8] c"%d\00", align 1
@.str.1 = private unnamed_addr constant [3 x i8] c"%s\00", align 1
@.str.2 = private unnamed_addr constant [4 x i8] c"no\0A\00", align 1
@.str.3 = private unnamed_addr constant [4 x i8] c"%c\0A\00", align 1

; Function Attrs: noinline nounwind uwtable
define dso_local i32 @main() #0 {
  %1 = alloca i32, align 4
  %2 = alloca i32, align 4
  %3 = alloca [100010 x i8], align 16
  %4 = alloca [26 x [2 x i32]], align 16
  %5 = alloca i32, align 4
  %6 = alloca i32, align 4
  %7 = alloca i32, align 4
  store i32 0, i32* %1, align 4
  %8 = call i32 (i8*, ...) @__isoc99_scanf(i8* getelementptr inbounds ([3 x i8], [3 x i8]* @.str, i64 0, i64 0), i32* %2)
  br label %9

9:                                                ; preds = %103, %0
  %10 = load i32, i32* %2, align 4
  %11 = add nsw i32 %10, -1
  store i32 %11, i32* %2, align 4
  %12 = icmp ne i32 %10, 0
  br i1 %12, label %13, label %104

13:                                               ; preds = %9
  %14 = bitcast [26 x [2 x i32]]* %4 to i8*
  call void @llvm.memset.p0i8.i64(i8* align 16 %14, i8 0, i64 208, i1 false)
  %15 = getelementptr inbounds [100010 x i8], [100010 x i8]* %3, i64 0, i64 0
  %16 = call i32 (i8*, ...) @__isoc99_scanf(i8* getelementptr inbounds ([3 x i8], [3 x i8]* @.str.1, i64 0, i64 0), i8* %15)
  store i32 100010, i32* %7, align 4
  store i32 0, i32* %5, align 4
  br label %17

17:                                               ; preds = %58, %13
  %18 = load i32, i32* %5, align 4
  %19 = sext i32 %18 to i64
  %20 = getelementptr inbounds [100010 x i8], [100010 x i8]* %3, i64 0, i64 0
  %21 = call i64 @strlen(i8* %20) #4
  %22 = icmp ult i64 %19, %21
  br i1 %22, label %23, label %61

23:                                               ; preds = %17
  %24 = load i32, i32* %5, align 4
  %25 = sext i32 %24 to i64
  %26 = getelementptr inbounds [100010 x i8], [100010 x i8]* %3, i64 0, i64 %25
  %27 = load i8, i8* %26, align 1
  %28 = sext i8 %27 to i32
  %29 = sub nsw i32 %28, 97
  %30 = sext i32 %29 to i64
  %31 = getelementptr inbounds [26 x [2 x i32]], [26 x [2 x i32]]* %4, i64 0, i64 %30
  %32 = getelementptr inbounds [2 x i32], [2 x i32]* %31, i64 0, i64 0
  %33 = load i32, i32* %32, align 8
  %34 = add nsw i32 %33, 1
  store i32 %34, i32* %32, align 8
  %35 = load i32, i32* %5, align 4
  %36 = sext i32 %35 to i64
  %37 = getelementptr inbounds [100010 x i8], [100010 x i8]* %3, i64 0, i64 %36
  %38 = load i8, i8* %37, align 1
  %39 = sext i8 %38 to i32
  %40 = sub nsw i32 %39, 97
  %41 = sext i32 %40 to i64
  %42 = getelementptr inbounds [26 x [2 x i32]], [26 x [2 x i32]]* %4, i64 0, i64 %41
  %43 = getelementptr inbounds [2 x i32], [2 x i32]* %42, i64 0, i64 0
  %44 = load i32, i32* %43, align 8
  %45 = icmp eq i32 %44, 1
  br i1 %45, label %46, label %57

46:                                               ; preds = %23
  %47 = load i32, i32* %5, align 4
  %48 = load i32, i32* %5, align 4
  %49 = sext i32 %48 to i64
  %50 = getelementptr inbounds [100010 x i8], [100010 x i8]* %3, i64 0, i64 %49
  %51 = load i8, i8* %50, align 1
  %52 = sext i8 %51 to i32
  %53 = sub nsw i32 %52, 97
  %54 = sext i32 %53 to i64
  %55 = getelementptr inbounds [26 x [2 x i32]], [26 x [2 x i32]]* %4, i64 0, i64 %54
  %56 = getelementptr inbounds [2 x i32], [2 x i32]* %55, i64 0, i64 1
  store i32 %47, i32* %56, align 4
  br label %57

57:                                               ; preds = %46, %23
  br label %58

58:                                               ; preds = %57
  %59 = load i32, i32* %5, align 4
  %60 = add nsw i32 %59, 1
  store i32 %60, i32* %5, align 4
  br label %17

61:                                               ; preds = %17
  store i32 0, i32* %5, align 4
  br label %62

62:                                               ; preds = %88, %61
  %63 = load i32, i32* %5, align 4
  %64 = icmp slt i32 %63, 26
  br i1 %64, label %65, label %91

65:                                               ; preds = %62
  %66 = load i32, i32* %5, align 4
  %67 = sext i32 %66 to i64
  %68 = getelementptr inbounds [26 x [2 x i32]], [26 x [2 x i32]]* %4, i64 0, i64 %67
  %69 = getelementptr inbounds [2 x i32], [2 x i32]* %68, i64 0, i64 0
  %70 = load i32, i32* %69, align 8
  %71 = icmp eq i32 %70, 1
  br i1 %71, label %72, label %87

72:                                               ; preds = %65
  %73 = load i32, i32* %7, align 4
  %74 = load i32, i32* %5, align 4
  %75 = sext i32 %74 to i64
  %76 = getelementptr inbounds [26 x [2 x i32]], [26 x [2 x i32]]* %4, i64 0, i64 %75
  %77 = getelementptr inbounds [2 x i32], [2 x i32]* %76, i64 0, i64 1
  %78 = load i32, i32* %77, align 4
  %79 = icmp sgt i32 %73, %78
  br i1 %79, label %80, label %86

80:                                               ; preds = %72
  %81 = load i32, i32* %5, align 4
  %82 = sext i32 %81 to i64
  %83 = getelementptr inbounds [26 x [2 x i32]], [26 x [2 x i32]]* %4, i64 0, i64 %82
  %84 = getelementptr inbounds [2 x i32], [2 x i32]* %83, i64 0, i64 1
  %85 = load i32, i32* %84, align 4
  store i32 %85, i32* %7, align 4
  br label %86

86:                                               ; preds = %80, %72
  br label %87

87:                                               ; preds = %86, %65
  br label %88

88:                                               ; preds = %87
  %89 = load i32, i32* %5, align 4
  %90 = add nsw i32 %89, 1
  store i32 %90, i32* %5, align 4
  br label %62

91:                                               ; preds = %62
  %92 = load i32, i32* %7, align 4
  %93 = icmp eq i32 %92, 100010
  br i1 %93, label %94, label %96

94:                                               ; preds = %91
  %95 = call i32 (i8*, ...) @printf(i8* getelementptr inbounds ([4 x i8], [4 x i8]* @.str.2, i64 0, i64 0))
  br label %103

96:                                               ; preds = %91
  %97 = load i32, i32* %7, align 4
  %98 = sext i32 %97 to i64
  %99 = getelementptr inbounds [100010 x i8], [100010 x i8]* %3, i64 0, i64 %98
  %100 = load i8, i8* %99, align 1
  %101 = sext i8 %100 to i32
  %102 = call i32 (i8*, ...) @printf(i8* getelementptr inbounds ([4 x i8], [4 x i8]* @.str.3, i64 0, i64 0), i32 %101)
  br label %103

103:                                              ; preds = %96, %94
  br label %9

104:                                              ; preds = %9
  %105 = load i32, i32* %1, align 4
  ret i32 %105
}

declare dso_local i32 @__isoc99_scanf(i8*, ...) #1

; Function Attrs: argmemonly nounwind willreturn
declare void @llvm.memset.p0i8.i64(i8* nocapture writeonly, i8, i64, i1 immarg) #2

; Function Attrs: nounwind readonly
declare dso_local i64 @strlen(i8*) #3

declare dso_local i32 @printf(i8*, ...) #1


!llvm.module.flags = !{!0}
!llvm.ident = !{!1}

!0 = !{i32 1, !"wchar_size", i32 4}
!1 = !{!"clang version 10.0.0-4ubuntu1 "}
